target datalayout = "e-m:e-p270:32:32-p271:32:32-p272:64:64-i64:64-i128:128-f80:128-n8:16:32:64-S128"
target triple = "x86_64-unknown-linux-gnu"

%struct.EHCIPCIInfo = type { ptr, i16, i16, i8, i8 }
%struct.PCIDeviceClass = type { %struct.DeviceClass, ptr, ptr, ptr, ptr, i16, i16, i8, i16, i16, i16, ptr }
%struct.DeviceClass = type { %struct.ObjectClass, [1 x i64], ptr, ptr, ptr, i8, i8, ptr, ptr, ptr, ptr, ptr }
%struct.ObjectClass = type { ptr, ptr, [4 x ptr], [4 x ptr], ptr, ptr }

@.str.1 = private unnamed_addr constant [11 x i8] c"pci-device\00", align 1
@.str.2 = private unnamed_addr constant [106 x i8] c"/home/dtcxzyw/WorkSpace/Projects/compilers/llvm-opt-benchmark/bench/qemu/qemu/include/hw/pci/pci_device.h\00", align 1
@__func__.PCI_DEVICE_CLASS = private unnamed_addr constant [17 x i8] c"PCI_DEVICE_CLASS\00", align 1
@.str.3 = private unnamed_addr constant [7 x i8] c"device\00", align 1
@.str.4 = private unnamed_addr constant [101 x i8] c"/home/dtcxzyw/WorkSpace/Projects/compilers/llvm-opt-benchmark/bench/qemu/qemu/include/hw/qdev-core.h\00", align 1
@__func__.DEVICE_CLASS = private unnamed_addr constant [13 x i8] c"DEVICE_CLASS\00", align 1

; Function Attrs: nounwind sspstrong uwtable
define internal void @set_bit(i64 noundef %nr, ptr noundef %addr) #0 {
entry:
  %nr.addr = alloca i64, align 8
  %addr.addr = alloca ptr, align 8
  %mask = alloca i64, align 8
  %p = alloca ptr, align 8
  store i64 %nr, ptr %nr.addr, align 8
  store ptr %addr, ptr %addr.addr, align 8
  %0 = load i64, ptr %nr.addr, align 8
  %rem = urem i64 %0, 64
  %shl = shl i64 1, %rem
  store i64 %shl, ptr %mask, align 8
  %1 = load ptr, ptr %addr.addr, align 8
  %2 = load i64, ptr %nr.addr, align 8
  %div = udiv i64 %2, 64
  %add.ptr = getelementptr i64, ptr %1, i64 %div
  store ptr %add.ptr, ptr %p, align 8
  %3 = load i64, ptr %mask, align 8
  %4 = load ptr, ptr %p, align 8
  %5 = load i64, ptr %4, align 8
  %or = or i64 %5, %3
  store i64 %or, ptr %4, align 8
  ret void
}

; Function Attrs: nounwind sspstrong uwtable
define internal ptr @DEVICE_CLASS(ptr noundef %klass) #0 {
entry:
  %klass.addr = alloca ptr, align 8
  store ptr %klass, ptr %klass.addr, align 8
  %0 = load ptr, ptr %klass.addr, align 8
  %call = call ptr @object_class_dynamic_cast_assert(ptr noundef %0, ptr noundef @.str.3, ptr noundef @.str.4, i32 noundef 77, ptr noundef @__func__.DEVICE_CLASS)
  ret ptr %call
}

; Function Attrs: nounwind sspstrong uwtable
define internal ptr @PCI_DEVICE_CLASS(ptr noundef %klass) #0 {
entry:
  %klass.addr = alloca ptr, align 8
  store ptr %klass, ptr %klass.addr, align 8
  %0 = load ptr, ptr %klass.addr, align 8
  %call = call ptr @object_class_dynamic_cast_assert(ptr noundef %0, ptr noundef @.str.1, ptr noundef @.str.2, i32 noundef 10, ptr noundef @__func__.PCI_DEVICE_CLASS)
  ret ptr %call
}

; Function Attrs: nounwind sspstrong uwtable
define internal void @ehci_data_class_init(ptr noundef %klass, ptr noundef %data) #0 {
entry:
  %klass.addr = alloca ptr, align 8
  %data.addr = alloca ptr, align 8
  %k = alloca ptr, align 8
  %dc = alloca ptr, align 8
  %i = alloca ptr, align 8
  store ptr %klass, ptr %klass.addr, align 8
  store ptr %data, ptr %data.addr, align 8
  %0 = load ptr, ptr %klass.addr, align 8
  %call = call ptr @PCI_DEVICE_CLASS(ptr noundef %0)
  store ptr %call, ptr %k, align 8
  %1 = load ptr, ptr %klass.addr, align 8
  %call1 = call ptr @DEVICE_CLASS(ptr noundef %1)
  store ptr %call1, ptr %dc, align 8
  %2 = load ptr, ptr %data.addr, align 8
  store ptr %2, ptr %i, align 8
  %3 = load ptr, ptr %i, align 8
  %vendor_id = getelementptr inbounds %struct.EHCIPCIInfo, ptr %3, i32 0, i32 1
  %4 = load i16, ptr %vendor_id, align 8
  %5 = load ptr, ptr %k, align 8
  %vendor_id2 = getelementptr inbounds %struct.PCIDeviceClass, ptr %5, i32 0, i32 5
  store i16 %4, ptr %vendor_id2, align 8
  %6 = load ptr, ptr %i, align 8
  %device_id = getelementptr inbounds %struct.EHCIPCIInfo, ptr %6, i32 0, i32 2
  %7 = load i16, ptr %device_id, align 2
  %8 = load ptr, ptr %k, align 8
  %device_id3 = getelementptr inbounds %struct.PCIDeviceClass, ptr %8, i32 0, i32 6
  store i16 %7, ptr %device_id3, align 2
  %9 = load ptr, ptr %i, align 8
  %revision = getelementptr inbounds %struct.EHCIPCIInfo, ptr %9, i32 0, i32 3
  %10 = load i8, ptr %revision, align 4
  %11 = load ptr, ptr %k, align 8
  %revision4 = getelementptr inbounds %struct.PCIDeviceClass, ptr %11, i32 0, i32 7
  store i8 %10, ptr %revision4, align 4
  %12 = load ptr, ptr %dc, align 8
  %categories = getelementptr inbounds %struct.DeviceClass, ptr %12, i32 0, i32 1
  %arraydecay = getelementptr inbounds [1 x i64], ptr %categories, i64 0, i64 0
  call void @set_bit(i64 noundef 1, ptr noundef %arraydecay)
  %13 = load ptr, ptr %i, align 8
  %companion = getelementptr inbounds %struct.EHCIPCIInfo, ptr %13, i32 0, i32 4
  %14 = load i8, ptr %companion, align 1
  %tobool = trunc i8 %14 to i1
  br i1 %tobool, label %if.then, label %if.end

if.then:                                          ; preds = %entry
  %15 = load ptr, ptr %dc, align 8
  %hotpluggable = getelementptr inbounds %struct.DeviceClass, ptr %15, i32 0, i32 6
  store i8 0, ptr %hotpluggable, align 1
  br label %if.end

if.end:                                           ; preds = %if.then, %entry
  ret void
}