; Function Attrs: nounwind sspstrong uwtable
define internal void @ehci_data_class_init(ptr noundef %klass, ptr noundef readonly captures(none) %data) #0 {
entry:
  %call.i = tail call ptr @object_class_dynamic_cast_assert(ptr noundef %klass, ptr noundef nonnull @.str.1, ptr noundef nonnull @.str.2, i32 noundef 10, ptr noundef nonnull @__func__.PCI_DEVICE_CLASS) #4
  %call.i8 = tail call ptr @object_class_dynamic_cast_assert(ptr noundef %klass, ptr noundef nonnull @.str.3, ptr noundef nonnull @.str.4, i32 noundef 77, ptr noundef nonnull @__func__.DEVICE_CLASS) #4
  %vendor_id = getelementptr inbounds nuw i8, ptr %data, i64 8
  %0 = load i16, ptr %vendor_id, align 8
  %vendor_id2 = getelementptr inbounds nuw i8, ptr %call.i, i64 208
  store i16 %0, ptr %vendor_id2, align 8
  %device_id = getelementptr inbounds nuw i8, ptr %data, i64 10
  %1 = load i16, ptr %device_id, align 2
  %device_id3 = getelementptr inbounds nuw i8, ptr %call.i, i64 210
  store i16 %1, ptr %device_id3, align 2
  %revision = getelementptr inbounds nuw i8, ptr %data, i64 12
  %2 = load i8, ptr %revision, align 4
  %revision4 = getelementptr inbounds nuw i8, ptr %call.i, i64 212
  store i8 %2, ptr %revision4, align 4
  %categories = getelementptr inbounds nuw i8, ptr %call.i8, i64 96
  %3 = load i64, ptr %categories, align 8
  %or.i = or i64 %3, 2
  store i64 %or.i, ptr %categories, align 8
  %companion = getelementptr inbounds nuw i8, ptr %data, i64 13
  %4 = load i8, ptr %companion, align 1
  %tobool = trunc i8 %4 to i1
  br i1 %tobool, label %if.then, label %if.end

if.then:                                          ; preds = %entry
  %hotpluggable = getelementptr inbounds nuw i8, ptr %call.i8, i64 129
  store i8 0, ptr %hotpluggable, align 1
  br label %if.end

if.end:                                           ; preds = %if.then, %entry
  ret void
}